; ModuleID = '19/2069.c'
source_filename = "19/2069.c"
target datalayout = "e-m:e-p270:32:32-p271:32:32-p272:64:64-i64:64-f80:128-n8:16:32:64-S128"
target triple = "x86_64-pc-linux-gnu"

; Function Attrs: noinline nounwind uwtable
define dso_local i32 @main() #0 {
  %1 = alloca i32, align 4
  %2 = alloca [100 x i8], align 16
  %3 = alloca [100 x i8], align 16
  %4 = alloca [100 x i8], align 16
  %5 = alloca [100 x i8], align 16
  %6 = alloca i32, align 4
  %7 = alloca i32, align 4
  %8 = alloca i32, align 4
  %9 = alloca i32, align 4
  %10 = alloca i32, align 4
  %11 = alloca i32, align 4
  %12 = alloca i32, align 4
  store i32 0, i32* %1, align 4
  %13 = bitcast [100 x i8]* %2 to i8*
  call void @llvm.memset.p0i8.i64(i8* align 16 %13, i8 0, i64 100, i1 false)
  %14 = bitcast [100 x i8]* %3 to i8*
  call void @llvm.memset.p0i8.i64(i8* align 16 %14, i8 0, i64 100, i1 false)
  %15 = bitcast [100 x i8]* %4 to i8*
  call void @llvm.memset.p0i8.i64(i8* align 16 %15, i8 0, i64 100, i1 false)
  %16 = bitcast [100 x i8]* %5 to i8*
  call void @llvm.memset.p0i8.i64(i8* align 16 %16, i8 0, i64 100, i1 false)
  %17 = getelementptr inbounds [100 x i8], [100 x i8]* %2, i64 0, i64 0
  %18 = call i32 (i8*, ...) bitcast (i32 (...)* @gets to i32 (i8*, ...)*)(i8* %17)
  %19 = getelementptr inbounds [100 x i8], [100 x i8]* %4, i64 0, i64 0
  %20 = call i32 (i8*, ...) bitcast (i32 (...)* @gets to i32 (i8*, ...)*)(i8* %19)
  %21 = getelementptr inbounds [100 x i8], [100 x i8]* %5, i64 0, i64 0
  %22 = call i32 (i8*, ...) bitcast (i32 (...)* @gets to i32 (i8*, ...)*)(i8* %21)
  store i32 0, i32* %9, align 4
  %23 = getelementptr inbounds [100 x i8], [100 x i8]* %4, i64 0, i64 0
  %24 = call i64 @strlen(i8* %23) #4
  %25 = trunc i64 %24 to i32
  store i32 %25, i32* %10, align 4
  %26 = getelementptr inbounds [100 x i8], [100 x i8]* %5, i64 0, i64 0
  %27 = call i64 @strlen(i8* %26) #4
  %28 = trunc i64 %27 to i32
  store i32 %28, i32* %11, align 4
  %29 = getelementptr inbounds [100 x i8], [100 x i8]* %2, i64 0, i64 0
  %30 = call i64 @strlen(i8* %29) #4
  %31 = trunc i64 %30 to i32
  store i32 %31, i32* %12, align 4
  store i32 0, i32* %6, align 4
  br label %32

32:                                               ; preds = %140, %0
  %33 = load i32, i32* %6, align 4
  %34 = load i32, i32* %12, align 4
  %35 = load i32, i32* %10, align 4
  %36 = sub nsw i32 %34, %35
  %37 = add nsw i32 %36, 1
  %38 = icmp slt i32 %33, %37
  br i1 %38, label %39, label %143

39:                                               ; preds = %32
  %40 = load i32, i32* %6, align 4
  %41 = icmp sgt i32 %40, 0
  br i1 %41, label %42, label %60

42:                                               ; preds = %39
  %43 = load i32, i32* %6, align 4
  %44 = sub nsw i32 %43, 1
  %45 = sext i32 %44 to i64
  %46 = getelementptr inbounds [100 x i8], [100 x i8]* %2, i64 0, i64 %45
  %47 = load i8, i8* %46, align 1
  %48 = sext i8 %47 to i32
  %49 = icmp ne i32 %48, 32
  br i1 %49, label %50, label %60

50:                                               ; preds = %42
  %51 = load i32, i32* %6, align 4
  %52 = sext i32 %51 to i64
  %53 = getelementptr inbounds [100 x i8], [100 x i8]* %2, i64 0, i64 %52
  %54 = load i8, i8* %53, align 1
  %55 = load i32, i32* %9, align 4
  %56 = sext i32 %55 to i64
  %57 = getelementptr inbounds [100 x i8], [100 x i8]* %3, i64 0, i64 %56
  store i8 %54, i8* %57, align 1
  %58 = load i32, i32* %9, align 4
  %59 = add nsw i32 %58, 1
  store i32 %59, i32* %9, align 4
  br label %140

60:                                               ; preds = %42, %39
  store i32 0, i32* %7, align 4
  br label %61

61:                                               ; preds = %81, %60
  %62 = load i32, i32* %7, align 4
  %63 = load i32, i32* %10, align 4
  %64 = icmp slt i32 %62, %63
  br i1 %64, label %65, label %84

65:                                               ; preds = %61
  %66 = load i32, i32* %6, align 4
  %67 = load i32, i32* %7, align 4
  %68 = add nsw i32 %66, %67
  %69 = sext i32 %68 to i64
  %70 = getelementptr inbounds [100 x i8], [100 x i8]* %2, i64 0, i64 %69
  %71 = load i8, i8* %70, align 1
  %72 = sext i8 %71 to i32
  %73 = load i32, i32* %7, align 4
  %74 = sext i32 %73 to i64
  %75 = getelementptr inbounds [100 x i8], [100 x i8]* %4, i64 0, i64 %74
  %76 = load i8, i8* %75, align 1
  %77 = sext i8 %76 to i32
  %78 = icmp ne i32 %72, %77
  br i1 %78, label %79, label %80

79:                                               ; preds = %65
  br label %84

80:                                               ; preds = %65
  br label %81

81:                                               ; preds = %80
  %82 = load i32, i32* %7, align 4
  %83 = add nsw i32 %82, 1
  store i32 %83, i32* %7, align 4
  br label %61

84:                                               ; preds = %79, %61
  %85 = load i32, i32* %6, align 4
  %86 = load i32, i32* %7, align 4
  %87 = add nsw i32 %85, %86
  %88 = load i32, i32* %12, align 4
  %89 = icmp eq i32 %87, %88
  br i1 %89, label %103, label %90

90:                                               ; preds = %84
  %91 = load i32, i32* %7, align 4
  %92 = load i32, i32* %10, align 4
  %93 = icmp eq i32 %91, %92
  br i1 %93, label %94, label %129

94:                                               ; preds = %90
  %95 = load i32, i32* %6, align 4
  %96 = load i32, i32* %7, align 4
  %97 = add nsw i32 %95, %96
  %98 = sext i32 %97 to i64
  %99 = getelementptr inbounds [100 x i8], [100 x i8]* %2, i64 0, i64 %98
  %100 = load i8, i8* %99, align 1
  %101 = sext i8 %100 to i32
  %102 = icmp eq i32 %101, 32
  br i1 %102, label %103, label %129

103:                                              ; preds = %94, %84
  store i32 0, i32* %8, align 4
  br label %104

104:                                              ; preds = %118, %103
  %105 = load i32, i32* %8, align 4
  %106 = load i32, i32* %11, align 4
  %107 = icmp slt i32 %105, %106
  br i1 %107, label %108, label %121

108:                                              ; preds = %104
  %109 = load i32, i32* %8, align 4
  %110 = sext i32 %109 to i64
  %111 = getelementptr inbounds [100 x i8], [100 x i8]* %5, i64 0, i64 %110
  %112 = load i8, i8* %111, align 1
  %113 = load i32, i32* %9, align 4
  %114 = load i32, i32* %8, align 4
  %115 = add nsw i32 %113, %114
  %116 = sext i32 %115 to i64
  %117 = getelementptr inbounds [100 x i8], [100 x i8]* %3, i64 0, i64 %116
  store i8 %112, i8* %117, align 1
  br label %118

118:                                              ; preds = %108
  %119 = load i32, i32* %8, align 4
  %120 = add nsw i32 %119, 1
  store i32 %120, i32* %8, align 4
  br label %104

121:                                              ; preds = %104
  %122 = load i32, i32* %11, align 4
  %123 = load i32, i32* %9, align 4
  %124 = add nsw i32 %123, %122
  store i32 %124, i32* %9, align 4
  %125 = load i32, i32* %10, align 4
  %126 = sub nsw i32 %125, 1
  %127 = load i32, i32* %6, align 4
  %128 = add nsw i32 %127, %126
  store i32 %128, i32* %6, align 4
  br label %139

129:                                              ; preds = %94, %90
  %130 = load i32, i32* %6, align 4
  %131 = sext i32 %130 to i64
  %132 = getelementptr inbounds [100 x i8], [100 x i8]* %2, i64 0, i64 %131
  %133 = load i8, i8* %132, align 1
  %134 = load i32, i32* %9, align 4
  %135 = sext i32 %134 to i64
  %136 = getelementptr inbounds [100 x i8], [100 x i8]* %3, i64 0, i64 %135
  store i8 %133, i8* %136, align 1
  %137 = load i32, i32* %9, align 4
  %138 = add nsw i32 %137, 1
  store i32 %138, i32* %9, align 4
  br label %139

139:                                              ; preds = %129, %121
  br label %140

140:                                              ; preds = %139, %50
  %141 = load i32, i32* %6, align 4
  %142 = add nsw i32 %141, 1
  store i32 %142, i32* %6, align 4
  br label %32

143:                                              ; preds = %32
  %144 = load i32, i32* %6, align 4
  %145 = load i32, i32* %12, align 4
  %146 = load i32, i32* %10, align 4
  %147 = sub nsw i32 %145, %146
  %148 = add nsw i32 %147, 1
  %149 = icmp eq i32 %144, %148
  br i1 %149, label %150, label %172

150:                                              ; preds = %143
  store i32 0, i32* %8, align 4
  br label %151

151:                                              ; preds = %168, %150
  %152 = load i32, i32* %8, align 4
  %153 = load i32, i32* %10, align 4
  %154 = sub nsw i32 %153, 1
  %155 = icmp slt i32 %152, %154
  br i1 %155, label %156, label %171

156:                                              ; preds = %151
  %157 = load i32, i32* %6, align 4
  %158 = load i32, i32* %8, align 4
  %159 = add nsw i32 %157, %158
  %160 = sext i32 %159 to i64
  %161 = getelementptr inbounds [100 x i8], [100 x i8]* %2, i64 0, i64 %160
  %162 = load i8, i8* %161, align 1
  %163 = load i32, i32* %9, align 4
  %164 = load i32, i32* %8, align 4
  %165 = add nsw i32 %163, %164
  %166 = sext i32 %165 to i64
  %167 = getelementptr inbounds [100 x i8], [100 x i8]* %3, i64 0, i64 %166
  store i8 %162, i8* %167, align 1
  br label %168

168:                                              ; preds = %156
  %169 = load i32, i32* %8, align 4
  %170 = add nsw i32 %169, 1
  store i32 %170, i32* %8, align 4
  br label %151

171:                                              ; preds = %151
  br label %172

172:                                              ; preds = %171, %143
  %173 = getelementptr inbounds [100 x i8], [100 x i8]* %3, i64 0, i64 0
  %174 = call i32 @puts(i8* %173)
  ret i32 0
}

; Function Attrs: argmemonly nounwind willreturn
declare void @llvm.memset.p0i8.i64(i8* nocapture writeonly, i8, i64, i1 immarg) #1

declare dso_local i32 @gets(...) #2

; Function Attrs: nounwind readonly
declare dso_local i64 @strlen(i8*) #3

declare dso_local i32 @puts(i8*) #2


!llvm.module.flags = !{!0}
!llvm.ident = !{!1}

!0 = !{i32 1, !"wchar_size", i32 4}
!1 = !{!"clang version 10.0.0-4ubuntu1 "}
